target datalayout = "e-m:e-p270:32:32-p271:32:32-p272:64:64-i64:64-i128:128-f80:128-n8:16:32:64-S128"
target triple = "x86_64-pc-linux-gnu"

%struct.ossl_item_st = type { i32, ptr }

; Function Attrs: nounwind uwtable
define ptr @evp_pkey_type2name(i32 noundef %0) #0 {
  %2 = alloca ptr, align 8
  %3 = alloca i32, align 4
  %4 = alloca i64, align 8
  %5 = alloca i32, align 4
  store i32 %0, ptr %3, align 4, !tbaa !8
  call void @llvm.lifetime.start.p0(i64 8, ptr %4) #8
  store i64 0, ptr %4, align 8, !tbaa !68
  br label %6

6:                                                ; preds = %22, %1
  %7 = load i64, ptr %4, align 8, !tbaa !68
  %8 = icmp ult i64 %7, 12
  br i1 %8, label %9, label %25

9:                                                ; preds = %6
  %10 = load i32, ptr %3, align 4, !tbaa !8
  %11 = load i64, ptr %4, align 8, !tbaa !68
  %12 = getelementptr inbounds nuw [12 x %struct.ossl_item_st], ptr @standard_name2type, i64 0, i64 %11
  %13 = getelementptr inbounds nuw %struct.ossl_item_st, ptr %12, i32 0, i32 0
  %14 = load i32, ptr %13, align 16, !tbaa !110
  %15 = icmp eq i32 %10, %14
  br i1 %15, label %16, label %21

16:                                               ; preds = %9
  %17 = load i64, ptr %4, align 8, !tbaa !68
  %18 = getelementptr inbounds nuw [12 x %struct.ossl_item_st], ptr @standard_name2type, i64 0, i64 %17
  %19 = getelementptr inbounds nuw %struct.ossl_item_st, ptr %18, i32 0, i32 1
  %20 = load ptr, ptr %19, align 8, !tbaa !108
  store ptr %20, ptr %2, align 8
  store i32 1, ptr %5, align 4
  br label %28

21:                                               ; preds = %9
  br label %22

22:                                               ; preds = %21
  %23 = load i64, ptr %4, align 8, !tbaa !68
  %24 = add i64 %23, 1
  store i64 %24, ptr %4, align 8, !tbaa !68
  br label %6, !llvm.loop !113

25:                                               ; preds = %6
  %26 = load i32, ptr %3, align 4, !tbaa !8
  %27 = call ptr @OBJ_nid2sn(i32 noundef %26)
  store ptr %27, ptr %2, align 8
  store i32 1, ptr %5, align 4
  br label %28

28:                                               ; preds = %25, %16
  call void @llvm.lifetime.end.p0(i64 8, ptr %4) #8
  %29 = load ptr, ptr %2, align 8
  ret ptr %29
}