; Function Attrs: nounwind uwtable
define ptr @evp_pkey_type2name(i32 noundef %0) local_unnamed_addr #0 {
  br label %4

2:                                                ; preds = %4
  %3 = add nuw nsw i64 %.07, 1
  %exitcond.not = icmp eq i64 %3, 12
  br i1 %exitcond.not, label %11, label %4, !llvm.loop !89

4:                                                ; preds = %1, %2
  %.07 = phi i64 [ 0, %1 ], [ %3, %2 ]
  %5 = getelementptr inbounds nuw [12 x %struct.ossl_item_st], ptr @standard_name2type, i64 0, i64 %.07
  %6 = load i32, ptr %5, align 16, !tbaa !88
  %7 = icmp eq i32 %0, %6
  br i1 %7, label %8, label %2

8:                                                ; preds = %4
  %9 = getelementptr inbounds nuw i8, ptr %5, i64 8
  %10 = load ptr, ptr %9, align 8, !tbaa !86
  br label %13

11:                                               ; preds = %2
  %12 = tail call ptr @OBJ_nid2sn(i32 noundef %0) #12
  br label %13

13:                                               ; preds = %11, %8
  %.06 = phi ptr [ %10, %8 ], [ %12, %11 ]
  ret ptr %.06
}